; Function Attrs: mustprogress nounwind uwtable
define dso_local void @_ZN5clang7ODRHash18AddDeclarationNameENS_15DeclarationNameEb(ptr noundef nonnull align 8 dereferenceable(320) %0, i64 %1, i1 noundef zeroext %2) local_unnamed_addr #0 align 2 {
  br i1 %2, label %4, label %.critedge

4:                                                ; preds = %3
  %5 = getelementptr inbounds nuw i8, ptr %0, i64 24
  %6 = tail call noundef i64 @_ZNK4llvm15SmallVectorBaseImE4sizeEv(ptr noundef nonnull align 8 dereferenceable(24) %5) #14
  %7 = add i64 %6, 1
  %8 = tail call noundef i64 @_ZNK4llvm15SmallVectorBaseImE8capacityEv(ptr noundef nonnull align 8 dereferenceable(24) %5) #14
  %.not.i.i.i.i = icmp ugt i64 %7, %8
  br i1 %.not.i.i.i.i, label %9, label %_ZN5clang7ODRHash10AddBooleanEb.exit

9:                                                ; preds = %4
  %10 = getelementptr inbounds nuw i8, ptr %0, i64 48
  tail call void @_ZN4llvm15SmallVectorBaseImE8grow_podEPvmm(ptr noundef nonnull align 8 dereferenceable(24) %5, ptr noundef nonnull %10, i64 noundef %7, i64 noundef 1) #14
  br label %_ZN5clang7ODRHash10AddBooleanEb.exit

_ZN5clang7ODRHash10AddBooleanEb.exit:             ; preds = %4, %9
  %11 = load ptr, ptr %5, align 8
  %12 = tail call noundef i64 @_ZNK4llvm15SmallVectorBaseImE4sizeEv(ptr noundef nonnull align 8 dereferenceable(24) %5) #14
  %13 = getelementptr inbounds i8, ptr %11, i64 %12
  store i8 1, ptr %13, align 1
  %14 = tail call noundef i64 @_ZNK4llvm15SmallVectorBaseImE4sizeEv(ptr noundef nonnull align 8 dereferenceable(24) %5) #14
  %15 = add i64 %14, 1
  tail call void @_ZN4llvm15SmallVectorBaseImE8set_sizeEm(ptr noundef nonnull align 8 dereferenceable(24) %5, i64 noundef %15) #14
  tail call void @_ZN5clang7ODRHash22AddDeclarationNameImplENS_15DeclarationNameE(ptr noundef nonnull align 8 dereferenceable(320) %0, i64 %1)
  %16 = tail call noundef i64 @_ZNK4llvm15SmallVectorBaseImE4sizeEv(ptr noundef nonnull align 8 dereferenceable(24) %5) #14
  %17 = add i64 %16, 1
  %18 = tail call noundef i64 @_ZNK4llvm15SmallVectorBaseImE8capacityEv(ptr noundef nonnull align 8 dereferenceable(24) %5) #14
  %.not.i.i.i.i3 = icmp ugt i64 %17, %18
  br i1 %.not.i.i.i.i3, label %19, label %_ZN5clang7ODRHash10AddBooleanEb.exit4

19:                                               ; preds = %_ZN5clang7ODRHash10AddBooleanEb.exit
  %20 = getelementptr inbounds nuw i8, ptr %0, i64 48
  tail call void @_ZN4llvm15SmallVectorBaseImE8grow_podEPvmm(ptr noundef nonnull align 8 dereferenceable(24) %5, ptr noundef nonnull %20, i64 noundef %17, i64 noundef 1) #14
  br label %_ZN5clang7ODRHash10AddBooleanEb.exit4

_ZN5clang7ODRHash10AddBooleanEb.exit4:            ; preds = %_ZN5clang7ODRHash10AddBooleanEb.exit, %19
  %21 = load ptr, ptr %5, align 8
  %22 = tail call noundef i64 @_ZNK4llvm15SmallVectorBaseImE4sizeEv(ptr noundef nonnull align 8 dereferenceable(24) %5) #14
  %23 = getelementptr inbounds i8, ptr %21, i64 %22
  store i8 0, ptr %23, align 1
  %24 = tail call noundef i64 @_ZNK4llvm15SmallVectorBaseImE4sizeEv(ptr noundef nonnull align 8 dereferenceable(24) %5) #14
  %25 = add i64 %24, 1
  tail call void @_ZN4llvm15SmallVectorBaseImE8set_sizeEm(ptr noundef nonnull align 8 dereferenceable(24) %5, i64 noundef %25) #14
  br label %26

.critedge:                                        ; preds = %3
  tail call void @_ZN5clang7ODRHash22AddDeclarationNameImplENS_15DeclarationNameE(ptr noundef nonnull align 8 dereferenceable(320) %0, i64 %1)
  br label %26

26:                                               ; preds = %.critedge, %_ZN5clang7ODRHash10AddBooleanEb.exit4
  ret void
}